(dp0
S'uids'
p1
(lp2
sS'retrieved'
p3
ctime
struct_time
p4
((I2015
I8
I14
I18
I15
I48
I4
I226
I1
tp5
(dp6
tp7
Rp8
sS'content'
p9
(lp10
sS'score'
p11
(lp12
sS'words'
p13
(lp14
sS'dfcount'
p15
ccopy_reg
_reconstructor
p16
(cpandas.core.frame
DataFrame
p17
c__builtin__
object
p18
Ntp19
Rp20
g16
(cpandas.core.internals
BlockManager
p21
g18
Ntp22
Rp23
((lp24
cpandas.core.index
_new_Index
p25
(cpandas.core.index
Index
p26
(dp27
S'data'
p28
cnumpy.core.multiarray
_reconstruct
p29
(cnumpy
ndarray
p30
(I0
tp31
S'b'
p32
tp33
Rp34
(I1
(I573
tp35
cnumpy
dtype
p36
(S'O8'
p37
I0
I1
tp38
Rp39
(I3
S'|'
p40
NNNI-1
I-1
I63
tp41
bI00
(lp42
Vabash
p43
aVabject
p44
aVabreast
p45
aVacadem
p46
aVaccept
p47
aVaccommod
p48
aVaccount
p49
aVach
p50
aVacross-the-board
p51
aVactiv
p52
aVad-lib
p53
aVadmiss
p54
aVadroit
p55
aVadventur
p56
aVadvis
p57
aVadynam
p58
aVafraid
p59
aVaggrav
p60
aVaggress
p61
aVagit
p62
aVagreeabl
p63
aVaim
p64
aValert
p65
aValiv
p66
aVall-around
p67
aVall_in
p68
aValogia
p69
aValon
p70
aValoof
p71
aVambiti
p72
aVamen
p73
aVamentifer
p74
aVamic
p75
aVamus
p76
aVanem
p77
aVanhedonia
p78
aVanswer
p79
aVantagonist
p80
aVantic
p81
aVantsi
p82
aVanxiou
p83
aVapathet
p84
aVapplic
p85
aVapt
p86
aVarabl
p87
aVarous
p88
aVasham
p89
aVasleep
p90
aVasphyxi
p91
aVaspir
p92
aVassimil
p93
aVat_loggerhead
p94
aVaudaci
p95
aVautonom
p96
aVaverag
p97
aVaweari
p98
aVbackach
p99
aVbackward
p100
aVbad
p101
aVbest-sel
p102
aVbetter
p103
aVbitter
p104
aVbittersweet
p105
aVbizarr
p106
aVblack
p107
aVblame
p108
aVblank
p109
aVbleari
p110
aVbless
p111
aVbliss
p112
aVblood-and-gut
p113
aVblow-by-blow
p114
aVblown
p115
aVbookish
p116
aVbore
p117
aVbound
p118
aVbreath
p119
aVbreathless
p120
aVbright
p121
aVbrisk
p122
aVbrokenheart
p123
aVbrood
p124
aVbrutal
p125
aVbullish
p126
aVburned-out
p127
aVbusi
p128
aVbustl
p129
aVcagey
p130
aVcanti
p131
aVcaprici
p132
aVcare
p133
aVcareless
p134
aVcareworn
p135
aVcasual
p136
aVcautiou
p137
aVcerebr
p138
aVcertain
p139
aVchaffi
p140
aVchang
p141
aVchange_st
p142
aVchast
p143
aVchatti
p144
aVcheer
p145
aVchurchgo
p146
aVchurchli
p147
aVcitywid
p148
aVclang
p149
aVclean
p150
aVcleanabl
p151
aVcleanli
p152
aVcliff-hang
p153
aVclose
p154
aVcoax
p155
aVcogent
p156
aVcognitive_st
p157
aVcoher
p158
aVcold
p159
aVcommis
p160
aVcommon
p161
aVcommun
p162
aVcompel
p163
aVcomprehens
p164
aVcompuls
p165
aVconcentr
p166
aVcondol
p167
aVconfid
p168
aVconfus
p169
aVconscienti
p170
aVconsecut
p171
aVconsider
p172
aVconstip
p173
aVconsum
p174
aVcontempl
p175
aVcontented
p176
aVcontrol
p177
aVconvers
p178
aVcosmopolitan
p179
aVcountrywid
p180
aVcountywid
p181
aVcragfast
p182
aVcranki
p183
aVcrave
p184
aVcrazi
p185
aVcreativ
p186
aVcretin
p187
aVcritic
p188
aVcuriou
p189
aVdanger
p190
aVdaze
p191
aVdead
p192
aVdecept
p193
aVdecis
p194
aVdeep
p195
aVdefi
p196
aVdegag
p197
aVdeject
p198
aVdelay
p199
aVdeliri
p200
aVdelusion
p201
aVdeperson
p202
aVdereal
p203
aVdesir
p204
aVdespair
p205
aVdespond
p206
aVdetail
p207
aVdevout
p208
aVdiffid
p209
aVdigress
p210
aVdilig
p211
aVdim-wit
p212
aVdirti
p213
aVdisagre
p214
aVdiscompos
p215
aVdiscont
p216
aVdiscrimin
p217
aVdishonest
p218
aVdisorgan
p219
aVdisquiet
p220
aVdissuas
p221
aVdistract
p222
aVdistraught
p223
aVdiurnal
p224
aVdole
p225
aVdoor-to-door
p226
aVdown-to-earth
p227
aVdownright
p228
aVdreami
p229
aVdrive
p230
aVdroop
p231
aVdrug
p232
aVdry-clean
p233
aVeat
p234
aVeclect
p235
aVeconom
p236
aVedgi
p237
aVeduc
p238
aVeeri
p239
aVeffici
p240
aVegotist
p241
aVelectr
p242
aVemot
p243
aVempath
p244
aVencroach
p245
aVencycloped
p246
aVenerget
p247
aVentertain
p248
aVerudit
p249
aVexhaust
p250
aVexist
p251
aVexot
p252
aVexpediti
p253
aVexpress
p254
aVexquisit
p255
aVextrem
p256
aVfabian
p257
aVfail
p258
aVfaint
p259
aVfamiliar
p260
aVfamish
p261
aVfanci
p262
aVfashion
p263
aVfastidi
p264
aVfavorit
p265
aVfecund
p266
aVfeebl
p267
aVfeverish
p268
aVfickl
p269
aVfictiv
p270
aVfierc
p271
aVflimsi
p272
aVflunki
p273
aVfootsor
p274
aVforlorn
p275
aVfrantic
p276
aVfreaki
p277
aVfrenzi
p278
aVfresh
p279
aVfriendli
p280
aVfrighten
p281
aVfunction
p282
aVfur-bear
p283
aVfutur
p284
aVfutureless
p285
aVfuzzi
p286
aVgaze
p287
aVgingerli
p288
aVglad
p289
aVglib
p290
aVgloomi
p291
aVgo
p292
aVgolden
p293
aVgood-for-noth
p294
aVgothic
p295
aVgrandios
p296
aVgraphic
p297
aVguard
p298
aVguilti
p299
aVhallucin
p300
aVhaphazard
p301
aVhappi
p302
aVhardhead
p303
aVhardwork
p304
aVhazard
p305
aVhead-on
p306
aVhealthi
p307
aVheavyheart
p308
aVheed
p309
aVheedless
p310
aVhelpless
p311
aVhep
p312
aVhigh-energi
p313
aVhonest
p314
aVhope
p315
aVhopeless
p316
aVhospit
p317
aVhostil
p318
aVhot
p319
aVhuffi
p320
aVhumor
p321
aVhungri
p322
aVhyperact
p323
aVhypochondriac
p324
aVhyster
p325
aVidiosyncrasi
p326
aVill
p327
aVill-natur
p328
aVimagin
p329
aVimbecil
p330
aVimmacul
p331
aVimmedi
p332
aVimmor
p333
aVimpati
p334
aVimpract
p335
aVimpuls
p336
aVimput
p337
aVinact
p338
aVinattent
p339
aVincauti
p340
aVincoher
p341
aVinconst
p342
aVincorrupt
p343
aVindecis
p344
aVindefatig
p345
aVindepend
p346
aVindividu
p347
aVindividualist
p348
aVindrawn
p349
aVinform
p350
aVinsan
p351
aVinsensit
p352
aVinsight
p353
aVinsolubl
p354
aVinstant
p355
aVintellectu
p356
aVintellig
p357
aVintens
p358
aVintensifi
p359
aVinterest
p360
aVinterf
p361
aVinterfaith
p362
aVinteroper
p363
aVintrus
p364
aVinvinc
p365
aVirrelev
p366
aVirreligi
p367
aVirrespons
p368
aVisoton
p369
aViter
p370
aVjade
p371
aVjerry-built
p372
aVjolt
p373
aVknacker
p374
aVknow
p375
aVknowledg
p376
aVlaid-back
p377
aVlarg
p378
aVlatter-day
p379
aVlaugh
p380
aVlaw
p381
aVlaw-abid
p382
aVletharg
p383
aVliabl
p384
aVlisten
p385
aVlistless
p386
aVlive
p387
aVlook
p388
aVmain
p389
aVmanki
p390
aVmanqu
p391
aVmatter-of-fact
p392
aVmelancholi
p393
aVmethod
p394
aVmeticul
p395
aVmild
p396
aVminut
p397
aVmisunderstood
p398
aVmoral
p399
aVmoralist
p400
aVmoron
p401
aVnamby-pambi
p402
aVnauseat
p403
aVneglig
p404
aVnervou
p405
aVneurot
p406
aVnocturn
p407
aVnoncompetit
p408
aVnoncomprehens
p409
aVnonrepetit
p410
aVnugatori
p411
aVnut-bear
p412
aVobsessive-compuls
p413
aVoddish
p414
aVoffhand
p415
aVoil-bear
p416
aVomnibu
p417
aVopen
p418
aVoper
p419
aVoppon
p420
aVoptimist
p421
aVorder
p422
aVorgan
p423
aVother
p424
aVotios
p425
aVoverambiti
p426
aVovercar
p427
aVovercauti
p428
aVoversensit
p429
aVpain
p430
aVpale
p431
aVparanoid
p432
aVparticular
p433
aVpast
p434
aVpatholog
p435
aVpatient
p436
aVpeculiar
p437
aVpensiv
p438
aVperceiv
p439
aVpercept
p440
aVperfectionist
p441
aVperson
p442
aVpersuas
p443
aVpessimist
p444
aVphysic
p445
aVplan
p446
aVpleaser
p447
aVplenari
p448
aVpopular
p449
aVpractic
p450
aVprecoci
p451
aVpresent
p452
aVpretenti
p453
aVpristin
p454
aVprivi
p455
aVprocedur
p456
aVprocrastin
p457
aVproduct
p458
aVprofound
p459
aVprompt
p460
aVprotect
p461
aVpsychedel
p462
aVpsychological_st
p463
aVpsychot
p464
aVpumped-up
p465
aVpunctual
p466
aVpuni
p467
aVpush
p468
aVpushov
p469
aVquaint
p470
aVquick-wit
p471
aVrag
p472
aVrage
p473
aVration
p474
aVreactiv
p475
aVrealist
p476
aVreason
p477
aVrecept
p478
aVreclus
p479
aVrelax
p480
aVreligi
p481
aVrepetit
p482
aVreserv
p483
aVresili
p484
aVrespons
p485
aVrest
p486
aVrestiv
p487
aVrestless
p488
aVretard
p489
aVretent
p490
aVrich
p491
aVrighteou
p492
aVrose-color
p493
aVroutin
p494
aVrubbishi
p495
aVsad
p496
aVsanguin
p497
aVschizophren
p498
aVscholarli
p499
aVschoolwid
p500
aVscream
p501
aVscrub
p502
aVself-assur
p503
aVself-destruct
p504
aVselfish
p505
aVsens
p506
aVsensit
p507
aVservic
p508
aVsever
p509
aVsexi
p510
aVsleepi
p511
aVslowdown
p512
aVsmart
p513
aVsmother
p514
aVsocial
p515
aVsorrow
p516
aVspatiotempor
p517
aVspirit
p518
aVspontan
p519
aVsport
p520
aVspringi
p521
aVstarry-ey
p522
aVstatewid
p523
aVstrain
p524
aVstrang
p525
aVstrenuou
p526
aVstrong
p527
aVstuck
p528
aVstudiou
p529
aVsuper
p530
aVswagger
p531
aVsympathet
p532
aVtarget
p533
aVtaut
p534
aVtens
p535
aVterrif
p536
aVthick
p537
aVthink
p538
aVthorough
p539
aVthought
p540
aVthrifti
p541
aVtime
p542
aVtinpot
p543
aVtire
p544
aVtourist
p545
aVtragic
p546
aVtragicom
p547
aVtravel-worn
p548
aVtroubl
p549
aVtrue-to-lif
p550
aVtrustworthi
p551
aVumbrella
p552
aVunab
p553
aVunaccompani
p554
aVunadventur
p555
aVunagit
p556
aVunambiti
p557
aVuncommun
p558
aVunconquer
p559
aVunconstip
p560
aVunconvent
p561
aVuncr
p562
aVunforbear
p563
aVunfriendli
p564
aVunhappi
p565
aVunhesit
p566
aVunhurri
p567
aVunimagin
p568
aVuninform
p569
aVuninterest
p570
aVunintrus
p571
aVunori
p572
aVunpopular
p573
aVunpredict
p574
aVunproduct
p575
aVunpunctu
p576
aVunrealist
p577
aVunrecept
p578
aVunrefresh
p579
aVunrelax
p580
aVunreli
p581
aVunreserv
p582
aVunrespons
p583
aVunretent
p584
aVunscholarli
p585
aVunscript
p586
aVunsoci
p587
aVunsoil
p588
aVunstrain
p589
aVunstuck
p590
aVunsulli
p591
aVunsympathet
p592
aVununderstood
p593
aVvaluabl
p594
aVvalueless
p595
aVverid
p596
aVvigor
p597
aVviolent
p598
aVvirtual
p599
aVvolubl
p600
aVvulner
p601
aVwash
p602
aVweak
p603
aVweaken
p604
aVweather
p605
aVweird
p606
aVwell-conduct
p607
aVwell-read
p608
aVwhack
p609
aVwild
p610
aVwild-ey
p611
aVwork
p612
aVworsen
p613
aVworthless
p614
aVyeasti
p615
atp616
bsS'name'
p617
Nstp618
Rp619
ag25
(g26
(dp620
g28
g29
(g30
(I0
tp621
g32
tp622
Rp623
(I1
(I0
tp624
g39
I00
(lp625
tp626
bsg617
Nstp627
Rp628
a(lp629
g29
(g30
(I0
tp630
g32
tp631
Rp632
(I1
(I573
I0
tp633
g39
I00
(lp634
tp635
ba(lp636
g25
(g26
(dp637
g28
g29
(g30
(I0
tp638
g32
tp639
Rp640
(I1
(I573
tp641
g39
I00
(lp642
g43
ag44
ag45
ag46
ag47
ag48
ag49
ag50
ag51
ag52
ag53
ag54
ag55
ag56
ag57
ag58
ag59
ag60
ag61
ag62
ag63
ag64
ag65
ag66
ag67
ag68
ag69
ag70
ag71
ag72
ag73
ag74
ag75
ag76
ag77
ag78
ag79
ag80
ag81
ag82
ag83
ag84
ag85
ag86
ag87
ag88
ag89
ag90
ag91
ag92
ag93
ag94
ag95
ag96
ag97
ag98
ag99
ag100
ag101
ag102
ag103
ag104
ag105
ag106
ag107
ag108
ag109
ag110
ag111
ag112
ag113
ag114
ag115
ag116
ag117
ag118
ag119
ag120
ag121
ag122
ag123
ag124
ag125
ag126
ag127
ag128
ag129
ag130
ag131
ag132
ag133
ag134
ag135
ag136
ag137
ag138
ag139
ag140
ag141
ag142
ag143
ag144
ag145
ag146
ag147
ag148
ag149
ag150
ag151
ag152
ag153
ag154
ag155
ag156
ag157
ag158
ag159
ag160
ag161
ag162
ag163
ag164
ag165
ag166
ag167
ag168
ag169
ag170
ag171
ag172
ag173
ag174
ag175
ag176
ag177
ag178
ag179
ag180
ag181
ag182
ag183
ag184
ag185
ag186
ag187
ag188
ag189
ag190
ag191
ag192
ag193
ag194
ag195
ag196
ag197
ag198
ag199
ag200
ag201
ag202
ag203
ag204
ag205
ag206
ag207
ag208
ag209
ag210
ag211
ag212
ag213
ag214
ag215
ag216
ag217
ag218
ag219
ag220
ag221
ag222
ag223
ag224
ag225
ag226
ag227
ag228
ag229
ag230
ag231
ag232
ag233
ag234
ag235
ag236
ag237
ag238
ag239
ag240
ag241
ag242
ag243
ag244
ag245
ag246
ag247
ag248
ag249
ag250
ag251
ag252
ag253
ag254
ag255
ag256
ag257
ag258
ag259
ag260
ag261
ag262
ag263
ag264
ag265
ag266
ag267
ag268
ag269
ag270
ag271
ag272
ag273
ag274
ag275
ag276
ag277
ag278
ag279
ag280
ag281
ag282
ag283
ag284
ag285
ag286
ag287
ag288
ag289
ag290
ag291
ag292
ag293
ag294
ag295
ag296
ag297
ag298
ag299
ag300
ag301
ag302
ag303
ag304
ag305
ag306
ag307
ag308
ag309
ag310
ag311
ag312
ag313
ag314
ag315
ag316
ag317
ag318
ag319
ag320
ag321
ag322
ag323
ag324
ag325
ag326
ag327
ag328
ag329
ag330
ag331
ag332
ag333
ag334
ag335
ag336
ag337
ag338
ag339
ag340
ag341
ag342
ag343
ag344
ag345
ag346
ag347
ag348
ag349
ag350
ag351
ag352
ag353
ag354
ag355
ag356
ag357
ag358
ag359
ag360
ag361
ag362
ag363
ag364
ag365
ag366
ag367
ag368
ag369
ag370
ag371
ag372
ag373
ag374
ag375
ag376
ag377
ag378
ag379
ag380
ag381
ag382
ag383
ag384
ag385
ag386
ag387
ag388
ag389
ag390
ag391
ag392
ag393
ag394
ag395
ag396
ag397
ag398
ag399
ag400
ag401
ag402
ag403
ag404
ag405
ag406
ag407
ag408
ag409
ag410
ag411
ag412
ag413
ag414
ag415
ag416
ag417
ag418
ag419
ag420
ag421
ag422
ag423
ag424
ag425
ag426
ag427
ag428
ag429
ag430
ag431
ag432
ag433
ag434
ag435
ag436
ag437
ag438
ag439
ag440
ag441
ag442
ag443
ag444
ag445
ag446
ag447
ag448
ag449
ag450
ag451
ag452
ag453
ag454
ag455
ag456
ag457
ag458
ag459
ag460
ag461
ag462
ag463
ag464
ag465
ag466
ag467
ag468
ag469
ag470
ag471
ag472
ag473
ag474
ag475
ag476
ag477
ag478
ag479
ag480
ag481
ag482
ag483
ag484
ag485
ag486
ag487
ag488
ag489
ag490
ag491
ag492
ag493
ag494
ag495
ag496
ag497
ag498
ag499
ag500
ag501
ag502
ag503
ag504
ag505
ag506
ag507
ag508
ag509
ag510
ag511
ag512
ag513
ag514
ag515
ag516
ag517
ag518
ag519
ag520
ag521
ag522
ag523
ag524
ag525
ag526
ag527
ag528
ag529
ag530
ag531
ag532
ag533
ag534
ag535
ag536
ag537
ag538
ag539
ag540
ag541
ag542
ag543
ag544
ag545
ag546
ag547
ag548
ag549
ag550
ag551
ag552
ag553
ag554
ag555
ag556
ag557
ag558
ag559
ag560
ag561
ag562
ag563
ag564
ag565
ag566
ag567
ag568
ag569
ag570
ag571
ag572
ag573
ag574
ag575
ag576
ag577
ag578
ag579
ag580
ag581
ag582
ag583
ag584
ag585
ag586
ag587
ag588
ag589
ag590
ag591
ag592
ag593
ag594
ag595
ag596
ag597
ag598
ag599
ag600
ag601
ag602
ag603
ag604
ag605
ag606
ag607
ag608
ag609
ag610
ag611
ag612
ag613
ag614
ag615
atp643
bsg617
Nstp644
Rp645
a(dp646
S'0.14.1'
p647
(dp648
S'axes'
p649
g24
sS'blocks'
p650
(lp651
(dp652
S'mgr_locs'
p653
c__builtin__
slice
p654
(I0
I573
I1
tp655
Rp656
sS'values'
p657
g632
sasstp658
bbsS'disorder'
p659
S'worldnews'
p660
s.